; Function Attrs: nounwind sspstrong uwtable
define internal void @get_audiodev(ptr noundef %obj, ptr noundef %v, ptr noundef %name, ptr noundef %opaque, ptr noundef %errp) #0 {
entry:
  %p = alloca ptr, align 8
  %call = tail call ptr @object_field_prop_ptr(ptr noundef %obj, ptr noundef %opaque) #10
  %call1 = tail call ptr @audio_get_id(ptr noundef %call) #10
  %call2 = tail call noalias ptr @g_strdup(ptr noundef %call1) #10
  store ptr %call2, ptr %p, align 8
  %call3 = call zeroext i1 @visit_type_str(ptr noundef %v, ptr noundef %name, ptr noundef nonnull %p, ptr noundef %errp) #10
  %0 = load ptr, ptr %p, align 8
  call void @g_free(ptr noundef %0) #10
  ret void
}